; ModuleID = '6/878.c'
source_filename = "6/878.c"
target datalayout = "e-m:e-p270:32:32-p271:32:32-p272:64:64-i64:64-f80:128-n8:16:32:64-S128"
target triple = "x86_64-pc-linux-gnu"

@.str = private unnamed_addr constant [3 x i8] c"%d\00", align 1
@.str.1 = private unnamed_addr constant [5 x i8] c"%d%d\00", align 1
@.str.2 = private unnamed_addr constant [4 x i8] c"%d\0A\00", align 1

; Function Attrs: noinline nounwind uwtable
define dso_local void @main() #0 {
  %1 = alloca i32, align 4
  %2 = alloca i32, align 4
  %3 = alloca i32, align 4
  %4 = alloca i32, align 4
  %5 = alloca i32, align 4
  %6 = alloca i32, align 4
  %7 = alloca [100 x [100 x i32]], align 16
  %8 = alloca [100 x i32], align 16
  %9 = bitcast [100 x i32]* %8 to i8*
  call void @llvm.memset.p0i8.i64(i8* align 16 %9, i8 0, i64 400, i1 false)
  %10 = call i32 (i8*, ...) @__isoc99_scanf(i8* getelementptr inbounds ([3 x i8], [3 x i8]* @.str, i64 0, i64 0), i32* %4)
  store i32 0, i32* %1, align 4
  br label %11

11:                                               ; preds = %75, %0
  %12 = load i32, i32* %1, align 4
  %13 = load i32, i32* %4, align 4
  %14 = icmp slt i32 %12, %13
  br i1 %14, label %15, label %78

15:                                               ; preds = %11
  %16 = call i32 (i8*, ...) @__isoc99_scanf(i8* getelementptr inbounds ([5 x i8], [5 x i8]* @.str.1, i64 0, i64 0), i32* %5, i32* %6)
  store i32 0, i32* %2, align 4
  br label %17

17:                                               ; preds = %71, %15
  %18 = load i32, i32* %2, align 4
  %19 = load i32, i32* %5, align 4
  %20 = icmp slt i32 %18, %19
  br i1 %20, label %21, label %74

21:                                               ; preds = %17
  store i32 0, i32* %3, align 4
  br label %22

22:                                               ; preds = %67, %21
  %23 = load i32, i32* %3, align 4
  %24 = load i32, i32* %6, align 4
  %25 = icmp slt i32 %23, %24
  br i1 %25, label %26, label %70

26:                                               ; preds = %22
  %27 = getelementptr inbounds [100 x [100 x i32]], [100 x [100 x i32]]* %7, i64 0, i64 0
  %28 = load i32, i32* %2, align 4
  %29 = sext i32 %28 to i64
  %30 = getelementptr inbounds [100 x i32], [100 x i32]* %27, i64 %29
  %31 = getelementptr inbounds [100 x i32], [100 x i32]* %30, i64 0, i64 0
  %32 = load i32, i32* %3, align 4
  %33 = sext i32 %32 to i64
  %34 = getelementptr inbounds i32, i32* %31, i64 %33
  %35 = call i32 (i8*, ...) @__isoc99_scanf(i8* getelementptr inbounds ([3 x i8], [3 x i8]* @.str, i64 0, i64 0), i32* %34)
  %36 = load i32, i32* %3, align 4
  %37 = icmp eq i32 %36, 0
  br i1 %37, label %51, label %38

38:                                               ; preds = %26
  %39 = load i32, i32* %3, align 4
  %40 = load i32, i32* %6, align 4
  %41 = sub nsw i32 %40, 1
  %42 = icmp eq i32 %39, %41
  br i1 %42, label %51, label %43

43:                                               ; preds = %38
  %44 = load i32, i32* %2, align 4
  %45 = icmp eq i32 %44, 0
  br i1 %45, label %51, label %46

46:                                               ; preds = %43
  %47 = load i32, i32* %2, align 4
  %48 = load i32, i32* %5, align 4
  %49 = sub nsw i32 %48, 1
  %50 = icmp eq i32 %47, %49
  br i1 %50, label %51, label %66

51:                                               ; preds = %46, %43, %38, %26
  %52 = getelementptr inbounds [100 x [100 x i32]], [100 x [100 x i32]]* %7, i64 0, i64 0
  %53 = load i32, i32* %2, align 4
  %54 = sext i32 %53 to i64
  %55 = getelementptr inbounds [100 x i32], [100 x i32]* %52, i64 %54
  %56 = getelementptr inbounds [100 x i32], [100 x i32]* %55, i64 0, i64 0
  %57 = load i32, i32* %3, align 4
  %58 = sext i32 %57 to i64
  %59 = getelementptr inbounds i32, i32* %56, i64 %58
  %60 = load i32, i32* %59, align 4
  %61 = load i32, i32* %1, align 4
  %62 = sext i32 %61 to i64
  %63 = getelementptr inbounds [100 x i32], [100 x i32]* %8, i64 0, i64 %62
  %64 = load i32, i32* %63, align 4
  %65 = add nsw i32 %64, %60
  store i32 %65, i32* %63, align 4
  br label %66

66:                                               ; preds = %51, %46
  br label %67

67:                                               ; preds = %66
  %68 = load i32, i32* %3, align 4
  %69 = add nsw i32 %68, 1
  store i32 %69, i32* %3, align 4
  br label %22

70:                                               ; preds = %22
  br label %71

71:                                               ; preds = %70
  %72 = load i32, i32* %2, align 4
  %73 = add nsw i32 %72, 1
  store i32 %73, i32* %2, align 4
  br label %17

74:                                               ; preds = %17
  br label %75

75:                                               ; preds = %74
  %76 = load i32, i32* %1, align 4
  %77 = add nsw i32 %76, 1
  store i32 %77, i32* %1, align 4
  br label %11

78:                                               ; preds = %11
  store i32 0, i32* %1, align 4
  br label %79

79:                                               ; preds = %89, %78
  %80 = load i32, i32* %1, align 4
  %81 = load i32, i32* %4, align 4
  %82 = icmp slt i32 %80, %81
  br i1 %82, label %83, label %92

83:                                               ; preds = %79
  %84 = load i32, i32* %1, align 4
  %85 = sext i32 %84 to i64
  %86 = getelementptr inbounds [100 x i32], [100 x i32]* %8, i64 0, i64 %85
  %87 = load i32, i32* %86, align 4
  %88 = call i32 (i8*, ...) @printf(i8* getelementptr inbounds ([4 x i8], [4 x i8]* @.str.2, i64 0, i64 0), i32 %87)
  br label %89

89:                                               ; preds = %83
  %90 = load i32, i32* %1, align 4
  %91 = add nsw i32 %90, 1
  store i32 %91, i32* %1, align 4
  br label %79

92:                                               ; preds = %79
  ret void
}

; Function Attrs: argmemonly nounwind willreturn
declare void @llvm.memset.p0i8.i64(i8* nocapture writeonly, i8, i64, i1 immarg) #1

declare dso_local i32 @__isoc99_scanf(i8*, ...) #2

declare dso_local i32 @printf(i8*, ...) #2


!llvm.module.flags = !{!0}
!llvm.ident = !{!1}

!0 = !{i32 1, !"wchar_size", i32 4}
!1 = !{!"clang version 10.0.0-4ubuntu1 "}
