; ModuleID = 'source-C-CXX/5/878.c'
source_filename = "source-C-CXX/5/878.c"
target datalayout = "e-m:e-p270:32:32-p271:32:32-p272:64:64-i64:64-f80:128-n8:16:32:64-S128"
target triple = "x86_64-pc-linux-gnu"

@.str = private unnamed_addr constant [3 x i8] c"%d\00", align 1
@.str.1 = private unnamed_addr constant [5 x i8] c"%d%d\00", align 1
@.str.2 = private unnamed_addr constant [4 x i8] c"%d\0A\00", align 1

; Function Attrs: nofree nounwind sspstrong uwtable
define dso_local void @main() local_unnamed_addr #0 {
  %1 = alloca i32, align 4
  %2 = alloca i32, align 4
  %3 = alloca i32, align 4
  %4 = alloca [100 x [100 x i32]], align 16
  %5 = alloca [100 x i32], align 16
  %6 = bitcast i32* %1 to i8*
  call void @llvm.lifetime.start.p0i8(i64 4, i8* nonnull %6) #4
  %7 = bitcast i32* %2 to i8*
  call void @llvm.lifetime.start.p0i8(i64 4, i8* nonnull %7) #4
  %8 = bitcast i32* %3 to i8*
  call void @llvm.lifetime.start.p0i8(i64 4, i8* nonnull %8) #4
  %9 = bitcast [100 x [100 x i32]]* %4 to i8*
  call void @llvm.lifetime.start.p0i8(i64 40000, i8* nonnull %9) #4
  %10 = bitcast [100 x i32]* %5 to i8*
  call void @llvm.lifetime.start.p0i8(i64 400, i8* nonnull %10) #4
  call void @llvm.memset.p0i8.i64(i8* noundef nonnull align 16 dereferenceable(400) %10, i8 0, i64 400, i1 false)
  %11 = call i32 (i8*, ...) @__isoc99_scanf(i8* getelementptr inbounds ([3 x i8], [3 x i8]* @.str, i64 0, i64 0), i32* nonnull %1)
  %12 = load i32, i32* %1, align 4, !tbaa !5
  %13 = icmp sgt i32 %12, 0
  br i1 %13, label %16, label %91

14:                                               ; preds = %77
  %15 = icmp sgt i32 %79, 0
  br i1 %15, label %82, label %91

16:                                               ; preds = %0, %77
  %17 = phi i64 [ %78, %77 ], [ 0, %0 ]
  %18 = call i32 (i8*, ...) @__isoc99_scanf(i8* getelementptr inbounds ([5 x i8], [5 x i8]* @.str.1, i64 0, i64 0), i32* nonnull %2, i32* nonnull %3)
  %19 = getelementptr inbounds [100 x i32], [100 x i32]* %5, i64 0, i64 %17
  %20 = load i32, i32* %2, align 4, !tbaa !5
  %21 = icmp sgt i32 %20, 0
  %22 = load i32, i32* %3, align 4
  %23 = icmp sgt i32 %22, 0
  %24 = select i1 %21, i1 %23, i1 false
  br i1 %24, label %25, label %77

25:                                               ; preds = %16, %71
  %26 = phi i32 [ %72, %71 ], [ %22, %16 ]
  %27 = phi i64 [ %73, %71 ], [ 0, %16 ]
  %28 = icmp sgt i32 %26, 0
  br i1 %28, label %29, label %71

29:                                               ; preds = %25
  %30 = icmp eq i64 %27, 0
  br i1 %30, label %39, label %31

31:                                               ; preds = %29
  %32 = getelementptr inbounds [100 x [100 x i32]], [100 x [100 x i32]]* %4, i64 0, i64 %27, i64 0
  %33 = call i32 (i8*, ...) @__isoc99_scanf(i8* getelementptr inbounds ([3 x i8], [3 x i8]* @.str, i64 0, i64 0), i32* nonnull %32)
  %34 = load i32, i32* %3, align 4, !tbaa !5
  %35 = load i32, i32* %32, align 16, !tbaa !5
  %36 = load i32, i32* %19, align 4, !tbaa !5
  %37 = add nsw i32 %36, %35
  store i32 %37, i32* %19, align 4, !tbaa !5
  %38 = icmp sgt i32 %34, 1
  br i1 %38, label %50, label %71

39:                                               ; preds = %29, %39
  %40 = phi i64 [ %46, %39 ], [ 0, %29 ]
  %41 = getelementptr inbounds [100 x [100 x i32]], [100 x [100 x i32]]* %4, i64 0, i64 0, i64 %40
  %42 = call i32 (i8*, ...) @__isoc99_scanf(i8* getelementptr inbounds ([3 x i8], [3 x i8]* @.str, i64 0, i64 0), i32* nonnull %41)
  %43 = load i32, i32* %41, align 4, !tbaa !5
  %44 = load i32, i32* %19, align 4, !tbaa !5
  %45 = add nsw i32 %44, %43
  store i32 %45, i32* %19, align 4, !tbaa !5
  %46 = add nuw nsw i64 %40, 1
  %47 = load i32, i32* %3, align 4, !tbaa !5
  %48 = sext i32 %47 to i64
  %49 = icmp slt i64 %46, %48
  br i1 %49, label %39, label %71, !llvm.loop !9

50:                                               ; preds = %31, %67
  %51 = phi i64 [ %68, %67 ], [ 1, %31 ]
  %52 = getelementptr inbounds [100 x [100 x i32]], [100 x [100 x i32]]* %4, i64 0, i64 %27, i64 %51
  %53 = call i32 (i8*, ...) @__isoc99_scanf(i8* getelementptr inbounds ([3 x i8], [3 x i8]* @.str, i64 0, i64 0), i32* nonnull %52)
  %54 = load i32, i32* %3, align 4, !tbaa !5
  %55 = add nsw i32 %54, -1
  %56 = zext i32 %55 to i64
  %57 = icmp eq i64 %51, %56
  br i1 %57, label %63, label %58

58:                                               ; preds = %50
  %59 = load i32, i32* %2, align 4, !tbaa !5
  %60 = add nsw i32 %59, -1
  %61 = zext i32 %60 to i64
  %62 = icmp eq i64 %27, %61
  br i1 %62, label %63, label %67

63:                                               ; preds = %58, %50
  %64 = load i32, i32* %52, align 4, !tbaa !5
  %65 = load i32, i32* %19, align 4, !tbaa !5
  %66 = add nsw i32 %65, %64
  store i32 %66, i32* %19, align 4, !tbaa !5
  br label %67

67:                                               ; preds = %58, %63
  %68 = add nuw nsw i64 %51, 1
  %69 = sext i32 %54 to i64
  %70 = icmp slt i64 %68, %69
  br i1 %70, label %50, label %71, !llvm.loop !11

71:                                               ; preds = %67, %39, %31, %25
  %72 = phi i32 [ %26, %25 ], [ %34, %31 ], [ %47, %39 ], [ %54, %67 ]
  %73 = add nuw nsw i64 %27, 1
  %74 = load i32, i32* %2, align 4, !tbaa !5
  %75 = sext i32 %74 to i64
  %76 = icmp slt i64 %73, %75
  br i1 %76, label %25, label %77, !llvm.loop !13

77:                                               ; preds = %71, %16
  %78 = add nuw nsw i64 %17, 1
  %79 = load i32, i32* %1, align 4, !tbaa !5
  %80 = sext i32 %79 to i64
  %81 = icmp slt i64 %78, %80
  br i1 %81, label %16, label %14, !llvm.loop !15

82:                                               ; preds = %14, %82
  %83 = phi i64 [ %87, %82 ], [ 0, %14 ]
  %84 = getelementptr inbounds [100 x i32], [100 x i32]* %5, i64 0, i64 %83
  %85 = load i32, i32* %84, align 4, !tbaa !5
  %86 = call i32 (i8*, ...) @printf(i8* nonnull dereferenceable(1) getelementptr inbounds ([4 x i8], [4 x i8]* @.str.2, i64 0, i64 0), i32 %85)
  %87 = add nuw nsw i64 %83, 1
  %88 = load i32, i32* %1, align 4, !tbaa !5
  %89 = sext i32 %88 to i64
  %90 = icmp slt i64 %87, %89
  br i1 %90, label %82, label %91, !llvm.loop !16

91:                                               ; preds = %82, %0, %14
  call void @llvm.lifetime.end.p0i8(i64 400, i8* nonnull %10) #4
  call void @llvm.lifetime.end.p0i8(i64 40000, i8* nonnull %9) #4
  call void @llvm.lifetime.end.p0i8(i64 4, i8* nonnull %8) #4
  call void @llvm.lifetime.end.p0i8(i64 4, i8* nonnull %7) #4
  call void @llvm.lifetime.end.p0i8(i64 4, i8* nonnull %6) #4
  ret void
}

; Function Attrs: argmemonly mustprogress nofree nosync nounwind willreturn
declare void @llvm.lifetime.start.p0i8(i64 immarg, i8* nocapture) #1

; Function Attrs: argmemonly mustprogress nofree nounwind willreturn writeonly
declare void @llvm.memset.p0i8.i64(i8* nocapture writeonly, i8, i64, i1 immarg) #2

; Function Attrs: nofree nounwind
declare noundef i32 @__isoc99_scanf(i8* nocapture noundef readonly, ...) local_unnamed_addr #3

; Function Attrs: nofree nounwind
declare noundef i32 @printf(i8* nocapture noundef readonly, ...) local_unnamed_addr #3

; Function Attrs: argmemonly mustprogress nofree nosync nounwind willreturn
declare void @llvm.lifetime.end.p0i8(i64 immarg, i8* nocapture) #1


!llvm.module.flags = !{!0, !1, !2, !3}
!llvm.ident = !{!4}

!0 = !{i32 1, !"wchar_size", i32 4}
!1 = !{i32 7, !"PIC Level", i32 2}
!2 = !{i32 7, !"PIE Level", i32 2}
!3 = !{i32 7, !"uwtable", i32 1}
!4 = !{!"clang version 13.0.0"}
!5 = !{!6, !6, i64 0}
!6 = !{!"int", !7, i64 0}
!7 = !{!"omnipotent char", !8, i64 0}
!8 = !{!"Simple C/C++ TBAA"}
!9 = distinct !{!9, !10}
!10 = !{!"llvm.loop.mustprogress"}
!11 = distinct !{!11, !10, !12}
!12 = !{!"llvm.loop.peeled.count", i32 1}
!13 = distinct !{!13, !10, !14}
!14 = !{!"llvm.loop.unswitch.partial.disable"}
!15 = distinct !{!15, !10}
!16 = distinct !{!16, !10}
